; Function Attrs: mustprogress uwtable
define dso_local noundef ptr @_ZN4Luau18findExprAtPositionERKNS_12SourceModuleENS_8PositionE(ptr noundef nonnull readonly align 8 captures(none) dereferenceable(240) %0, i64 %1) local_unnamed_addr #4 {
  %3 = getelementptr inbounds nuw i8, ptr %0, i64 176
  %4 = load ptr, ptr %3, align 8, !tbaa !39
  %5 = tail call noundef ptr @_ZN4Luau18findNodeAtPositionEPNS_12AstStatBlockENS_8PositionE(ptr noundef %4, i64 %1)
  %.not = icmp eq ptr %5, null
  br i1 %.not, label %11, label %6

6:                                                ; preds = %2
  %7 = load ptr, ptr %5, align 8, !tbaa !8
  %8 = getelementptr inbounds nuw i8, ptr %7, i64 8
  %9 = load ptr, ptr %8, align 8
  %10 = tail call noundef ptr %9(ptr noundef nonnull align 8 dereferenceable(28) %5)
  br label %11

11:                                               ; preds = %2, %6
  %.0 = phi ptr [ %10, %6 ], [ null, %2 ]
  ret ptr %.0
}